; ModuleID = 'bench/lean4/original/alloc.ll'
source_filename = "bench/lean4/original/alloc.ll"
target datalayout = "e-m:e-p270:32:32-p271:32:32-p272:64:64-i64:64-i128:128-f80:128-n8:16:32:64-S128"
target triple = "x86_64-pc-linux-gnu"

module asm ".globl _ZSt21ios_base_library_initv"

@_ZN4leanL11g_heartbeatE = internal thread_local(initialexec) unnamed_addr global i64 0, align 8

; Function Attrs: mustprogress nofree norecurse nosync nounwind willreturn memory(none) uwtable
define hidden void @_ZN4lean16initialize_allocEv() local_unnamed_addr #0 {
  ret void
}

; Function Attrs: mustprogress nofree norecurse nosync nounwind willreturn memory(none) uwtable
define hidden void @_ZN4lean14finalize_allocEv() local_unnamed_addr #0 {
  ret void
}

; Function Attrs: mustprogress nofree norecurse nosync nounwind willreturn memory(write, argmem: none, inaccessiblemem: none) uwtable
define void @_ZN4lean14set_heartbeatsEm(i64 noundef %0) local_unnamed_addr #1 {
  %2 = tail call align 8 ptr @llvm.threadlocal.address.p0(ptr align 8 @_ZN4leanL11g_heartbeatE)
  store i64 %0, ptr %2, align 8, !tbaa !3
  ret void
}

; Function Attrs: mustprogress nocallback nofree nosync nounwind speculatable willreturn memory(none)
declare nonnull ptr @llvm.threadlocal.address.p0(ptr nonnull) #2

; Function Attrs: mustprogress nofree norecurse nosync nounwind willreturn memory(readwrite, argmem: none, inaccessiblemem: none) uwtable
define void @_ZN4lean14add_heartbeatsEm(i64 noundef %0) local_unnamed_addr #3 {
  %2 = tail call align 8 ptr @llvm.threadlocal.address.p0(ptr align 8 @_ZN4leanL11g_heartbeatE)
  %3 = load i64, ptr %2, align 8, !tbaa !3
  %4 = add i64 %3, %0
  store i64 %4, ptr %2, align 8, !tbaa !3
  ret void
}

; Function Attrs: mustprogress nofree norecurse nosync nounwind willreturn memory(readwrite, argmem: none, inaccessiblemem: none) uwtable
define void @lean_inc_heartbeat() local_unnamed_addr #3 {
  %1 = tail call align 8 ptr @llvm.threadlocal.address.p0(ptr align 8 @_ZN4leanL11g_heartbeatE)
  %2 = load i64, ptr %1, align 8, !tbaa !3
  %3 = add i64 %2, 1
  store i64 %3, ptr %1, align 8, !tbaa !3
  ret void
}

; Function Attrs: mustprogress nofree norecurse nosync nounwind willreturn memory(read, argmem: none, inaccessiblemem: none) uwtable
define noundef i64 @_ZN4lean18get_num_heartbeatsEv() local_unnamed_addr #4 {
  %1 = tail call align 8 ptr @llvm.threadlocal.address.p0(ptr align 8 @_ZN4leanL11g_heartbeatE)
  %2 = load i64, ptr %1, align 8, !tbaa !3
  ret i64 %2
}


!llvm.module.flags = !{!0, !1, !2}

!0 = !{i32 1, !"wchar_size", i32 4}
!1 = !{i32 8, !"PIC Level", i32 2}
!2 = !{i32 7, !"uwtable", i32 2}
!3 = !{!4, !4, i64 0}
!4 = !{!"long", !5, i64 0}
!5 = !{!"omnipotent char", !6, i64 0}
!6 = !{!"Simple C++ TBAA"}
